target datalayout = "e-m:e-p270:32:32-p271:32:32-p272:64:64-i64:64-i128:128-f80:128-n8:16:32:64-S128"
target triple = "x86_64-pc-linux-gnu"

%struct.b2World = type { %struct.b2ArenaAllocator, %struct.b2BroadPhase, %struct.b2ConstraintGraph, %struct.b2IdPool, %struct.b2BodyArray, %struct.b2IdPool, %struct.b2SolverSetArray, %struct.b2IdPool, %struct.b2JointArray, %struct.b2IdPool, %struct.b2ContactArray, %struct.b2IdPool, %struct.b2IslandArray, %struct.b2IdPool, %struct.b2IdPool, %struct.b2ShapeArray, %struct.b2ChainShapeArray, %struct.b2SensorArray, %struct.b2TaskContextArray, %struct.b2SensorTaskContextArray, %struct.b2BodyMoveEventArray, %struct.b2SensorBeginTouchEventArray, %struct.b2ContactBeginTouchEventArray, [2 x %struct.b2SensorEndTouchEventArray], [2 x %struct.b2ContactEndTouchEventArray], i32, %struct.b2ContactHitEventArray, %struct.b2BitSet, %struct.b2BitSet, %struct.b2BitSet, i64, i32, %struct.b2Vec2, float, float, float, float, float, float, float, float, ptr, ptr, i16, %struct.b2Profile, ptr, ptr, ptr, ptr, i32, ptr, ptr, ptr, ptr, ptr, float, i32, i32, i16, i8, i8, i8, i8, i8, i8 }
%struct.b2ArenaAllocator = type { ptr, i32, i32, i32, i32, %struct.b2ArenaEntryArray }
%struct.b2ArenaEntryArray = type { ptr, i32, i32 }
%struct.b2BroadPhase = type { [3 x %struct.b2DynamicTree], i32, %struct.b2HashSet, %struct.b2IntArray, ptr, ptr, i32, %struct.b2AtomicInt, %struct.b2HashSet }
%struct.b2DynamicTree = type { ptr, i32, i32, i32, i32, i32, ptr, ptr, ptr, ptr, i32 }
%struct.b2IntArray = type { ptr, i32, i32 }
%struct.b2AtomicInt = type { i32 }
%struct.b2HashSet = type { ptr, i32, i32 }
%struct.b2ConstraintGraph = type { [12 x %struct.b2GraphColor] }
%struct.b2GraphColor = type { %struct.b2BitSet, %struct.b2ContactSimArray, %struct.b2JointSimArray, %union.anon }
%struct.b2ContactSimArray = type { ptr, i32, i32 }
%struct.b2JointSimArray = type { ptr, i32, i32 }
%union.anon = type { ptr }
%struct.b2BodyArray = type { ptr, i32, i32 }
%struct.b2SolverSetArray = type { ptr, i32, i32 }
%struct.b2JointArray = type { ptr, i32, i32 }
%struct.b2ContactArray = type { ptr, i32, i32 }
%struct.b2IslandArray = type { ptr, i32, i32 }
%struct.b2IdPool = type { %struct.b2IntArray, i32 }
%struct.b2ShapeArray = type { ptr, i32, i32 }
%struct.b2ChainShapeArray = type { ptr, i32, i32 }
%struct.b2SensorArray = type { ptr, i32, i32 }
%struct.b2TaskContextArray = type { ptr, i32, i32 }
%struct.b2SensorTaskContextArray = type { ptr, i32, i32 }
%struct.b2BodyMoveEventArray = type { ptr, i32, i32 }
%struct.b2SensorBeginTouchEventArray = type { ptr, i32, i32 }
%struct.b2ContactBeginTouchEventArray = type { ptr, i32, i32 }
%struct.b2SensorEndTouchEventArray = type { ptr, i32, i32 }
%struct.b2ContactEndTouchEventArray = type { ptr, i32, i32 }
%struct.b2ContactHitEventArray = type { ptr, i32, i32 }
%struct.b2BitSet = type { ptr, i32, i32 }
%struct.b2Vec2 = type { float, float }
%struct.b2Profile = type { float, float, float, float, float, float, float, float, float, float, float, float, float, float, float, float, float, float, float, float, float, float }
%struct.b2Transform = type { %struct.b2Vec2, %struct.b2Rot }
%struct.b2Rot = type { float, float }
%struct.b2WorldId = type { i16, i16 }
%struct.b2TreeStats = type { i32, i32 }
%struct.b2Capsule = type { %struct.b2Vec2, %struct.b2Vec2, float }
%struct.b2QueryFilter = type { i64, i64 }
%struct.WorldRayCastContext = type { ptr, ptr, %struct.b2QueryFilter, float, ptr }
%struct.b2ShapeCastInput = type { [8 x %struct.b2Vec2], i32, float, %struct.b2Vec2, float }

@b2_worlds = hidden global [128 x %struct.b2World] zeroinitializer, align 16

; Function Attrs: inlinehint nounwind uwtable
define internal <2 x float> @b2TransformPoint(<2 x float> %0, <2 x float> %1, <2 x float> %2) #8 {
  %4 = alloca %struct.b2Vec2, align 4
  %5 = alloca %struct.b2Transform, align 4
  %6 = alloca %struct.b2Vec2, align 4
  %7 = alloca float, align 4
  %8 = alloca float, align 4
  %9 = getelementptr inbounds nuw { <2 x float>, <2 x float> }, ptr %5, i32 0, i32 0
  store <2 x float> %0, ptr %9, align 4
  %10 = getelementptr inbounds nuw { <2 x float>, <2 x float> }, ptr %5, i32 0, i32 1
  store <2 x float> %1, ptr %10, align 4
  store <2 x float> %2, ptr %6, align 4
  call void @llvm.lifetime.start.p0(i64 4, ptr %7) #10
  %11 = getelementptr inbounds nuw %struct.b2Transform, ptr %5, i32 0, i32 1
  %12 = getelementptr inbounds nuw %struct.b2Rot, ptr %11, i32 0, i32 0
  %13 = load float, ptr %12, align 4, !tbaa !414
  %14 = getelementptr inbounds nuw %struct.b2Vec2, ptr %6, i32 0, i32 0
  %15 = load float, ptr %14, align 4, !tbaa !341
  %16 = fmul float %13, %15
  %17 = getelementptr inbounds nuw %struct.b2Transform, ptr %5, i32 0, i32 1
  %18 = getelementptr inbounds nuw %struct.b2Rot, ptr %17, i32 0, i32 1
  %19 = load float, ptr %18, align 4, !tbaa !415
  %20 = getelementptr inbounds nuw %struct.b2Vec2, ptr %6, i32 0, i32 1
  %21 = load float, ptr %20, align 4, !tbaa !343
  %22 = fmul float %19, %21
  %23 = fsub float %16, %22
  %24 = getelementptr inbounds nuw %struct.b2Transform, ptr %5, i32 0, i32 0
  %25 = getelementptr inbounds nuw %struct.b2Vec2, ptr %24, i32 0, i32 0
  %26 = load float, ptr %25, align 4, !tbaa !416
  %27 = fadd float %23, %26
  store float %27, ptr %7, align 4, !tbaa !124
  call void @llvm.lifetime.start.p0(i64 4, ptr %8) #10
  %28 = getelementptr inbounds nuw %struct.b2Transform, ptr %5, i32 0, i32 1
  %29 = getelementptr inbounds nuw %struct.b2Rot, ptr %28, i32 0, i32 1
  %30 = load float, ptr %29, align 4, !tbaa !415
  %31 = getelementptr inbounds nuw %struct.b2Vec2, ptr %6, i32 0, i32 0
  %32 = load float, ptr %31, align 4, !tbaa !341
  %33 = fmul float %30, %32
  %34 = getelementptr inbounds nuw %struct.b2Transform, ptr %5, i32 0, i32 1
  %35 = getelementptr inbounds nuw %struct.b2Rot, ptr %34, i32 0, i32 0
  %36 = load float, ptr %35, align 4, !tbaa !414
  %37 = getelementptr inbounds nuw %struct.b2Vec2, ptr %6, i32 0, i32 1
  %38 = load float, ptr %37, align 4, !tbaa !343
  %39 = fmul float %36, %38
  %40 = fadd float %33, %39
  %41 = getelementptr inbounds nuw %struct.b2Transform, ptr %5, i32 0, i32 0
  %42 = getelementptr inbounds nuw %struct.b2Vec2, ptr %41, i32 0, i32 1
  %43 = load float, ptr %42, align 4, !tbaa !417
  %44 = fadd float %40, %43
  store float %44, ptr %8, align 4, !tbaa !124
  %45 = getelementptr inbounds nuw %struct.b2Vec2, ptr %4, i32 0, i32 0
  %46 = load float, ptr %7, align 4, !tbaa !124
  store float %46, ptr %45, align 4, !tbaa !341
  %47 = getelementptr inbounds nuw %struct.b2Vec2, ptr %4, i32 0, i32 1
  %48 = load float, ptr %8, align 4, !tbaa !124
  store float %48, ptr %47, align 4, !tbaa !343
  call void @llvm.lifetime.end.p0(i64 4, ptr %8) #10
  call void @llvm.lifetime.end.p0(i64 4, ptr %7) #10
  %49 = load <2 x float>, ptr %4, align 4
  ret <2 x float> %49
}

; Function Attrs: nounwind uwtable
define hidden ptr @b2GetWorldFromId(i32 %0) #0 {
  %2 = alloca %struct.b2WorldId, align 2
  %3 = alloca ptr, align 8
  store i32 %0, ptr %2, align 2
  call void @llvm.lifetime.start.p0(i64 8, ptr %3) #10
  %4 = getelementptr inbounds nuw %struct.b2WorldId, ptr %2, i32 0, i32 0
  %5 = load i16, ptr %4, align 2, !tbaa !44
  %6 = zext i16 %5 to i32
  %7 = sub nsw i32 %6, 1
  %8 = sext i32 %7 to i64
  %9 = getelementptr inbounds %struct.b2World, ptr @b2_worlds, i64 %8
  store ptr %9, ptr %3, align 8, !tbaa !47
  %10 = load ptr, ptr %3, align 8, !tbaa !47
  call void @llvm.lifetime.end.p0(i64 8, ptr %3) #10
  ret ptr %10
}

; Function Attrs: nounwind uwtable
define i64 @b2World_CastCapsule(i32 %0, ptr noundef %1, <2 x float> %2, <2 x float> %3, <2 x float> %4, i64 %5, i64 %6, ptr noundef %7, ptr noundef %8) #6 {
  %10 = alloca %struct.b2TreeStats, align 4
  %11 = alloca %struct.b2WorldId, align 2
  %12 = alloca %struct.b2Transform, align 4
  %13 = alloca %struct.b2Vec2, align 4
  %14 = alloca %struct.b2QueryFilter, align 8
  %15 = alloca ptr, align 8
  %16 = alloca ptr, align 8
  %17 = alloca ptr, align 8
  %18 = alloca ptr, align 8
  %19 = alloca i32, align 4
  %20 = alloca %struct.b2ShapeCastInput, align 4
  %21 = alloca %struct.b2Vec2, align 4
  %22 = alloca %struct.b2Vec2, align 4
  %23 = alloca %struct.WorldRayCastContext, align 8
  %24 = alloca i32, align 4
  %25 = alloca %struct.b2TreeStats, align 4
  store i32 %0, ptr %11, align 2
  %26 = getelementptr inbounds nuw { <2 x float>, <2 x float> }, ptr %12, i32 0, i32 0
  store <2 x float> %2, ptr %26, align 4
  %27 = getelementptr inbounds nuw { <2 x float>, <2 x float> }, ptr %12, i32 0, i32 1
  store <2 x float> %3, ptr %27, align 4
  store <2 x float> %4, ptr %13, align 4
  %28 = getelementptr inbounds nuw { i64, i64 }, ptr %14, i32 0, i32 0
  store i64 %5, ptr %28, align 8
  %29 = getelementptr inbounds nuw { i64, i64 }, ptr %14, i32 0, i32 1
  store i64 %6, ptr %29, align 8
  store ptr %1, ptr %15, align 8, !tbaa !396
  store ptr %7, ptr %16, align 8, !tbaa !12
  store ptr %8, ptr %17, align 8, !tbaa !12
  call void @llvm.memset.p0.i64(ptr align 4 %10, i8 0, i64 8, i1 false)
  call void @llvm.lifetime.start.p0(i64 8, ptr %18) #10
  %30 = load i32, ptr %11, align 2
  %31 = call ptr @b2GetWorldFromId(i32 %30)
  store ptr %31, ptr %18, align 8, !tbaa !47
  %32 = load ptr, ptr %18, align 8, !tbaa !47
  %33 = getelementptr inbounds nuw %struct.b2World, ptr %32, i32 0, i32 60
  %34 = load i8, ptr %33, align 1, !tbaa !49, !range !90, !noundef !91
  %35 = trunc i8 %34 to i1
  br i1 %35, label %36, label %37

36:                                               ; preds = %9
  store i32 1, ptr %19, align 4
  br label %117

37:                                               ; preds = %9
  call void @llvm.lifetime.start.p0(i64 84, ptr %20) #10
  %38 = getelementptr inbounds nuw %struct.b2ShapeCastInput, ptr %20, i32 0, i32 0
  %39 = getelementptr inbounds [8 x %struct.b2Vec2], ptr %38, i64 0, i64 0
  call void @llvm.lifetime.start.p0(i64 8, ptr %21) #10
  %40 = load ptr, ptr %15, align 8, !tbaa !396
  %41 = getelementptr inbounds nuw %struct.b2Capsule, ptr %40, i32 0, i32 0
  %42 = getelementptr inbounds nuw { <2 x float>, <2 x float> }, ptr %12, i32 0, i32 0
  %43 = load <2 x float>, ptr %42, align 4
  %44 = getelementptr inbounds nuw { <2 x float>, <2 x float> }, ptr %12, i32 0, i32 1
  %45 = load <2 x float>, ptr %44, align 4
  %46 = load <2 x float>, ptr %41, align 4
  %47 = call <2 x float> @b2TransformPoint(<2 x float> %43, <2 x float> %45, <2 x float> %46)
  store <2 x float> %47, ptr %21, align 4
  call void @llvm.memcpy.p0.p0.i64(ptr align 4 %39, ptr align 4 %21, i64 8, i1 false), !tbaa.struct !162
  call void @llvm.lifetime.end.p0(i64 8, ptr %21) #10
  %48 = getelementptr inbounds nuw %struct.b2ShapeCastInput, ptr %20, i32 0, i32 0
  %49 = getelementptr inbounds [8 x %struct.b2Vec2], ptr %48, i64 0, i64 1
  call void @llvm.lifetime.start.p0(i64 8, ptr %22) #10
  %50 = load ptr, ptr %15, align 8, !tbaa !396
  %51 = getelementptr inbounds nuw %struct.b2Capsule, ptr %50, i32 0, i32 1
  %52 = getelementptr inbounds nuw { <2 x float>, <2 x float> }, ptr %12, i32 0, i32 0
  %53 = load <2 x float>, ptr %52, align 4
  %54 = getelementptr inbounds nuw { <2 x float>, <2 x float> }, ptr %12, i32 0, i32 1
  %55 = load <2 x float>, ptr %54, align 4
  %56 = load <2 x float>, ptr %51, align 4
  %57 = call <2 x float> @b2TransformPoint(<2 x float> %53, <2 x float> %55, <2 x float> %56)
  store <2 x float> %57, ptr %22, align 4
  call void @llvm.memcpy.p0.p0.i64(ptr align 4 %49, ptr align 4 %22, i64 8, i1 false), !tbaa.struct !162
  call void @llvm.lifetime.end.p0(i64 8, ptr %22) #10
  %58 = getelementptr inbounds nuw %struct.b2ShapeCastInput, ptr %20, i32 0, i32 1
  store i32 2, ptr %58, align 4, !tbaa !558
  %59 = load ptr, ptr %15, align 8, !tbaa !396
  %60 = getelementptr inbounds nuw %struct.b2Capsule, ptr %59, i32 0, i32 2
  %61 = load float, ptr %60, align 4, !tbaa !399
  %62 = getelementptr inbounds nuw %struct.b2ShapeCastInput, ptr %20, i32 0, i32 2
  store float %61, ptr %62, align 4, !tbaa !560
  %63 = getelementptr inbounds nuw %struct.b2ShapeCastInput, ptr %20, i32 0, i32 3
  call void @llvm.memcpy.p0.p0.i64(ptr align 4 %63, ptr align 4 %13, i64 8, i1 false), !tbaa.struct !162
  %64 = getelementptr inbounds nuw %struct.b2ShapeCastInput, ptr %20, i32 0, i32 4
  store float 1.000000e+00, ptr %64, align 4, !tbaa !561
  call void @llvm.lifetime.start.p0(i64 48, ptr %23) #10
  %65 = getelementptr inbounds nuw %struct.WorldRayCastContext, ptr %23, i32 0, i32 0
  %66 = load ptr, ptr %18, align 8, !tbaa !47
  store ptr %66, ptr %65, align 8, !tbaa !537
  %67 = getelementptr inbounds nuw %struct.WorldRayCastContext, ptr %23, i32 0, i32 1
  %68 = load ptr, ptr %16, align 8, !tbaa !12
  store ptr %68, ptr %67, align 8, !tbaa !539
  %69 = getelementptr inbounds nuw %struct.WorldRayCastContext, ptr %23, i32 0, i32 2
  call void @llvm.memcpy.p0.p0.i64(ptr align 8 %69, ptr align 8 %14, i64 16, i1 false), !tbaa.struct !506
  %70 = getelementptr inbounds nuw %struct.WorldRayCastContext, ptr %23, i32 0, i32 3
  store float 1.000000e+00, ptr %70, align 8, !tbaa !540
  %71 = getelementptr i8, ptr %23, i64 36
  call void @llvm.memset.p0.i64(ptr align 4 %71, i8 0, i64 4, i1 false)
  %72 = getelementptr inbounds nuw %struct.WorldRayCastContext, ptr %23, i32 0, i32 4
  %73 = load ptr, ptr %17, align 8, !tbaa !12
  store ptr %73, ptr %72, align 8, !tbaa !541
  call void @llvm.lifetime.start.p0(i64 4, ptr %24) #10
  store i32 0, ptr %24, align 4, !tbaa !3
  br label %74

74:                                               ; preds = %110, %37
  %75 = load i32, ptr %24, align 4, !tbaa !3
  %76 = icmp slt i32 %75, 3
  br i1 %76, label %78, label %77

77:                                               ; preds = %74
  store i32 2, ptr %19, align 4
  br label %113

78:                                               ; preds = %74
  call void @llvm.lifetime.start.p0(i64 8, ptr %25) #10
  %79 = load ptr, ptr %18, align 8, !tbaa !47
  %80 = getelementptr inbounds nuw %struct.b2World, ptr %79, i32 0, i32 1
  %81 = getelementptr inbounds nuw %struct.b2BroadPhase, ptr %80, i32 0, i32 0
  %82 = getelementptr inbounds [3 x %struct.b2DynamicTree], ptr %81, i64 0, i64 0
  %83 = load i32, ptr %24, align 4, !tbaa !3
  %84 = sext i32 %83 to i64
  %85 = getelementptr inbounds %struct.b2DynamicTree, ptr %82, i64 %84
  %86 = getelementptr inbounds nuw %struct.b2QueryFilter, ptr %14, i32 0, i32 1
  %87 = load i64, ptr %86, align 8, !tbaa !508
  %88 = call i64 @b2DynamicTree_ShapeCast(ptr noundef %85, ptr noundef %20, i64 noundef %87, ptr noundef @ShapeCastCallback, ptr noundef %23)
  store i64 %88, ptr %25, align 4
  %89 = getelementptr inbounds nuw %struct.b2TreeStats, ptr %25, i32 0, i32 0
  %90 = load i32, ptr %89, align 4, !tbaa !509
  %91 = getelementptr inbounds nuw %struct.b2TreeStats, ptr %10, i32 0, i32 0
  %92 = load i32, ptr %91, align 4, !tbaa !509
  %93 = add nsw i32 %92, %90
  store i32 %93, ptr %91, align 4, !tbaa !509
  %94 = getelementptr inbounds nuw %struct.b2TreeStats, ptr %25, i32 0, i32 1
  %95 = load i32, ptr %94, align 4, !tbaa !511
  %96 = getelementptr inbounds nuw %struct.b2TreeStats, ptr %10, i32 0, i32 1
  %97 = load i32, ptr %96, align 4, !tbaa !511
  %98 = add nsw i32 %97, %95
  store i32 %98, ptr %96, align 4, !tbaa !511
  %99 = getelementptr inbounds nuw %struct.WorldRayCastContext, ptr %23, i32 0, i32 3
  %100 = load float, ptr %99, align 8, !tbaa !540
  %101 = fcmp oeq float %100, 0.000000e+00
  br i1 %101, label %102, label %103

102:                                              ; preds = %78
  store i32 1, ptr %19, align 4
  br label %107

103:                                              ; preds = %78
  %104 = getelementptr inbounds nuw %struct.WorldRayCastContext, ptr %23, i32 0, i32 3
  %105 = load float, ptr %104, align 8, !tbaa !540
  %106 = getelementptr inbounds nuw %struct.b2ShapeCastInput, ptr %20, i32 0, i32 4
  store float %105, ptr %106, align 4, !tbaa !561
  store i32 0, ptr %19, align 4
  br label %107

107:                                              ; preds = %103, %102
  call void @llvm.lifetime.end.p0(i64 8, ptr %25) #10
  %108 = load i32, ptr %19, align 4
  switch i32 %108, label %113 [
    i32 0, label %109
  ]

109:                                              ; preds = %107
  br label %110

110:                                              ; preds = %109
  %111 = load i32, ptr %24, align 4, !tbaa !3
  %112 = add nsw i32 %111, 1
  store i32 %112, ptr %24, align 4, !tbaa !3
  br label %74, !llvm.loop !565

113:                                              ; preds = %107, %77
  call void @llvm.lifetime.end.p0(i64 4, ptr %24) #10
  %114 = load i32, ptr %19, align 4
  switch i32 %114, label %116 [
    i32 2, label %115
  ]

115:                                              ; preds = %113
  store i32 1, ptr %19, align 4
  br label %116

116:                                              ; preds = %115, %113
  call void @llvm.lifetime.end.p0(i64 48, ptr %23) #10
  call void @llvm.lifetime.end.p0(i64 84, ptr %20) #10
  br label %117

117:                                              ; preds = %116, %36
  call void @llvm.lifetime.end.p0(i64 8, ptr %18) #10
  %118 = load i64, ptr %10, align 4
  ret i64 %118
}